target datalayout = "e-m:e-p270:32:32-p271:32:32-p272:64:64-i64:64-i128:128-f80:128-n8:16:32:64-S128"
target triple = "x86_64-pc-linux-gnu"

%struct.lzmastate = type { ptr, i32, i32 }

@.str.2 = private unnamed_addr constant [37 x i8] c"contain error! %p %08x ecx: %p [%p]\0A\00", align 1
@.str.3 = private unnamed_addr constant [36 x i8] c"contain error! %p %08x p0: %p [%p]\0A\00", align 1

; Function Attrs: nounwind uwtable
define i32 @lzma_upack_esi_00(ptr noundef %0, ptr noundef %1, ptr noundef %2, i32 noundef %3) #0 {
  %5 = alloca i32, align 4
  %6 = alloca ptr, align 8
  %7 = alloca ptr, align 8
  %8 = alloca ptr, align 8
  %9 = alloca i32, align 4
  %10 = alloca i32, align 4
  %11 = alloca i32, align 4
  %12 = alloca i32, align 4
  store ptr %0, ptr %6, align 8
  store ptr %1, ptr %7, align 8
  store ptr %2, ptr %8, align 8
  store i32 %3, ptr %9, align 4
  %13 = load ptr, ptr %6, align 8
  %14 = getelementptr inbounds %struct.lzmastate, ptr %13, i32 0, i32 1
  %15 = load i32, ptr %14, align 8
  %16 = lshr i32 %15, 11
  store i32 %16, ptr %10, align 4
  %17 = load i32, ptr %9, align 4
  %18 = zext i32 %17 to i64
  %19 = icmp ugt i64 %18, 0
  br i1 %19, label %20, label %104

20:                                               ; preds = %4
  %21 = load i32, ptr %9, align 4
  %22 = zext i32 %21 to i64
  %23 = icmp ule i64 4, %22
  br i1 %23, label %24, label %104

24:                                               ; preds = %20
  %25 = load ptr, ptr %7, align 8
  %26 = ptrtoint ptr %25 to i64
  %27 = load ptr, ptr %8, align 8
  %28 = ptrtoint ptr %27 to i64
  %29 = icmp uge i64 %26, %28
  br i1 %29, label %30, label %104

30:                                               ; preds = %24
  %31 = load ptr, ptr %7, align 8
  %32 = ptrtoint ptr %31 to i64
  %33 = add i64 %32, 4
  %34 = load ptr, ptr %8, align 8
  %35 = ptrtoint ptr %34 to i64
  %36 = load i32, ptr %9, align 4
  %37 = zext i32 %36 to i64
  %38 = add i64 %35, %37
  %39 = icmp ule i64 %33, %38
  br i1 %39, label %40, label %104

40:                                               ; preds = %30
  %41 = load ptr, ptr %7, align 8
  %42 = ptrtoint ptr %41 to i64
  %43 = add i64 %42, 4
  %44 = load ptr, ptr %8, align 8
  %45 = ptrtoint ptr %44 to i64
  %46 = icmp ugt i64 %43, %45
  br i1 %46, label %47, label %104

47:                                               ; preds = %40
  %48 = load ptr, ptr %7, align 8
  %49 = ptrtoint ptr %48 to i64
  %50 = load ptr, ptr %8, align 8
  %51 = ptrtoint ptr %50 to i64
  %52 = load i32, ptr %9, align 4
  %53 = zext i32 %52 to i64
  %54 = add i64 %51, %53
  %55 = icmp ult i64 %49, %54
  br i1 %55, label %56, label %104

56:                                               ; preds = %47
  %57 = load i32, ptr %9, align 4
  %58 = zext i32 %57 to i64
  %59 = icmp ugt i64 %58, 0
  br i1 %59, label %60, label %104

60:                                               ; preds = %56
  %61 = load i32, ptr %9, align 4
  %62 = zext i32 %61 to i64
  %63 = icmp ule i64 4, %62
  br i1 %63, label %64, label %104

64:                                               ; preds = %60
  %65 = load ptr, ptr %6, align 8
  %66 = getelementptr inbounds %struct.lzmastate, ptr %65, i32 0, i32 0
  %67 = load ptr, ptr %66, align 8
  %68 = ptrtoint ptr %67 to i64
  %69 = load ptr, ptr %8, align 8
  %70 = ptrtoint ptr %69 to i64
  %71 = icmp uge i64 %68, %70
  br i1 %71, label %72, label %104

72:                                               ; preds = %64
  %73 = load ptr, ptr %6, align 8
  %74 = getelementptr inbounds %struct.lzmastate, ptr %73, i32 0, i32 0
  %75 = load ptr, ptr %74, align 8
  %76 = ptrtoint ptr %75 to i64
  %77 = add i64 %76, 4
  %78 = load ptr, ptr %8, align 8
  %79 = ptrtoint ptr %78 to i64
  %80 = load i32, ptr %9, align 4
  %81 = zext i32 %80 to i64
  %82 = add i64 %79, %81
  %83 = icmp ule i64 %77, %82
  br i1 %83, label %84, label %104

84:                                               ; preds = %72
  %85 = load ptr, ptr %6, align 8
  %86 = getelementptr inbounds %struct.lzmastate, ptr %85, i32 0, i32 0
  %87 = load ptr, ptr %86, align 8
  %88 = ptrtoint ptr %87 to i64
  %89 = add i64 %88, 4
  %90 = load ptr, ptr %8, align 8
  %91 = ptrtoint ptr %90 to i64
  %92 = icmp ugt i64 %89, %91
  br i1 %92, label %93, label %104

93:                                               ; preds = %84
  %94 = load ptr, ptr %6, align 8
  %95 = getelementptr inbounds %struct.lzmastate, ptr %94, i32 0, i32 0
  %96 = load ptr, ptr %95, align 8
  %97 = ptrtoint ptr %96 to i64
  %98 = load ptr, ptr %8, align 8
  %99 = ptrtoint ptr %98 to i64
  %100 = load i32, ptr %9, align 4
  %101 = zext i32 %100 to i64
  %102 = add i64 %99, %101
  %103 = icmp ult i64 %97, %102
  br i1 %103, label %163, label %104

104:                                              ; preds = %93, %84, %72, %64, %60, %56, %47, %40, %30, %24, %20, %4
  %105 = load i32, ptr %9, align 4
  %106 = zext i32 %105 to i64
  %107 = icmp ugt i64 %106, 0
  br i1 %107, label %108, label %144

108:                                              ; preds = %104
  %109 = load i32, ptr %9, align 4
  %110 = zext i32 %109 to i64
  %111 = icmp ule i64 4, %110
  br i1 %111, label %112, label %144

112:                                              ; preds = %108
  %113 = load ptr, ptr %7, align 8
  %114 = ptrtoint ptr %113 to i64
  %115 = load ptr, ptr %8, align 8
  %116 = ptrtoint ptr %115 to i64
  %117 = icmp uge i64 %114, %116
  br i1 %117, label %118, label %144

118:                                              ; preds = %112
  %119 = load ptr, ptr %7, align 8
  %120 = ptrtoint ptr %119 to i64
  %121 = add i64 %120, 4
  %122 = load ptr, ptr %8, align 8
  %123 = ptrtoint ptr %122 to i64
  %124 = load i32, ptr %9, align 4
  %125 = zext i32 %124 to i64
  %126 = add i64 %123, %125
  %127 = icmp ule i64 %121, %126
  br i1 %127, label %128, label %144

128:                                              ; preds = %118
  %129 = load ptr, ptr %7, align 8
  %130 = ptrtoint ptr %129 to i64
  %131 = add i64 %130, 4
  %132 = load ptr, ptr %8, align 8
  %133 = ptrtoint ptr %132 to i64
  %134 = icmp ugt i64 %131, %133
  br i1 %134, label %135, label %144

135:                                              ; preds = %128
  %136 = load ptr, ptr %7, align 8
  %137 = ptrtoint ptr %136 to i64
  %138 = load ptr, ptr %8, align 8
  %139 = ptrtoint ptr %138 to i64
  %140 = load i32, ptr %9, align 4
  %141 = zext i32 %140 to i64
  %142 = add i64 %139, %141
  %143 = icmp ult i64 %137, %142
  br i1 %143, label %152, label %144

144:                                              ; preds = %135, %128, %118, %112, %108, %104
  %145 = load ptr, ptr %8, align 8
  %146 = load i32, ptr %9, align 4
  %147 = load ptr, ptr %7, align 8
  %148 = load ptr, ptr %8, align 8
  %149 = load i32, ptr %9, align 4
  %150 = zext i32 %149 to i64
  %151 = getelementptr inbounds i8, ptr %148, i64 %150
  call void (ptr, ...) @cli_dbgmsg(ptr noundef @.str.2, ptr noundef %145, i32 noundef %146, ptr noundef %147, ptr noundef %151)
  br label %162

152:                                              ; preds = %135
  %153 = load ptr, ptr %8, align 8
  %154 = load i32, ptr %9, align 4
  %155 = load ptr, ptr %6, align 8
  %156 = getelementptr inbounds %struct.lzmastate, ptr %155, i32 0, i32 0
  %157 = load ptr, ptr %156, align 8
  %158 = load ptr, ptr %8, align 8
  %159 = load i32, ptr %9, align 4
  %160 = zext i32 %159 to i64
  %161 = getelementptr inbounds i8, ptr %158, i64 %160
  call void (ptr, ...) @cli_dbgmsg(ptr noundef @.str.3, ptr noundef %153, i32 noundef %154, ptr noundef %157, ptr noundef %161)
  br label %162

162:                                              ; preds = %152, %144
  store i32 -1, ptr %5, align 4
  br label %247

163:                                              ; preds = %93
  %164 = load ptr, ptr %7, align 8
  %165 = load i32, ptr %164, align 1
  store i32 %165, ptr %11, align 4
  %166 = load i32, ptr %11, align 4
  %167 = load i32, ptr %10, align 4
  %168 = mul i32 %167, %166
  store i32 %168, ptr %10, align 4
  %169 = load ptr, ptr %6, align 8
  %170 = getelementptr inbounds %struct.lzmastate, ptr %169, i32 0, i32 0
  %171 = load ptr, ptr %170, align 8
  %172 = load i32, ptr %171, align 1
  store i32 %172, ptr %12, align 4
  %173 = load i32, ptr %12, align 4
  %174 = and i32 %173, 255
  %175 = shl i32 %174, 24
  %176 = load i32, ptr %12, align 4
  %177 = and i32 %176, 65280
  %178 = shl i32 %177, 8
  %179 = or i32 %175, %178
  %180 = load i32, ptr %12, align 4
  %181 = and i32 %180, 16711680
  %182 = lshr i32 %181, 8
  %183 = or i32 %179, %182
  %184 = load i32, ptr %12, align 4
  %185 = and i32 %184, -16777216
  %186 = lshr i32 %185, 24
  %187 = or i32 %183, %186
  store i32 %187, ptr %12, align 4
  %188 = load ptr, ptr %6, align 8
  %189 = getelementptr inbounds %struct.lzmastate, ptr %188, i32 0, i32 2
  %190 = load i32, ptr %189, align 4
  %191 = load i32, ptr %12, align 4
  %192 = sub i32 %191, %190
  store i32 %192, ptr %12, align 4
  %193 = load i32, ptr %12, align 4
  %194 = load i32, ptr %10, align 4
  %195 = icmp ult i32 %193, %194
  br i1 %195, label %196, label %208

196:                                              ; preds = %163
  %197 = load i32, ptr %10, align 4
  %198 = load ptr, ptr %6, align 8
  %199 = getelementptr inbounds %struct.lzmastate, ptr %198, i32 0, i32 1
  store i32 %197, ptr %199, align 8
  %200 = load i32, ptr %11, align 4
  %201 = sub i32 2048, %200
  %202 = lshr i32 %201, 5
  store i32 %202, ptr %10, align 4
  %203 = load ptr, ptr %7, align 8
  %204 = load i32, ptr %203, align 1
  %205 = load i32, ptr %10, align 4
  %206 = add i32 %204, %205
  %207 = load ptr, ptr %7, align 8
  store i32 %206, ptr %207, align 1
  store i32 0, ptr %11, align 4
  br label %226

208:                                              ; preds = %163
  %209 = load i32, ptr %10, align 4
  %210 = load ptr, ptr %6, align 8
  %211 = getelementptr inbounds %struct.lzmastate, ptr %210, i32 0, i32 2
  %212 = load i32, ptr %211, align 4
  %213 = add i32 %212, %209
  store i32 %213, ptr %211, align 4
  %214 = load i32, ptr %10, align 4
  %215 = load ptr, ptr %6, align 8
  %216 = getelementptr inbounds %struct.lzmastate, ptr %215, i32 0, i32 1
  %217 = load i32, ptr %216, align 8
  %218 = sub i32 %217, %214
  store i32 %218, ptr %216, align 8
  %219 = load i32, ptr %11, align 4
  %220 = lshr i32 %219, 5
  store i32 %220, ptr %10, align 4
  %221 = load ptr, ptr %7, align 8
  %222 = load i32, ptr %221, align 1
  %223 = load i32, ptr %10, align 4
  %224 = sub i32 %222, %223
  %225 = load ptr, ptr %7, align 8
  store i32 %224, ptr %225, align 1
  store i32 1, ptr %11, align 4
  br label %226

226:                                              ; preds = %208, %196
  %227 = load ptr, ptr %6, align 8
  %228 = getelementptr inbounds %struct.lzmastate, ptr %227, i32 0, i32 1
  %229 = load i32, ptr %228, align 8
  %230 = and i32 %229, -16777216
  %231 = icmp eq i32 %230, 0
  br i1 %231, label %232, label %245

232:                                              ; preds = %226
  %233 = load ptr, ptr %6, align 8
  %234 = getelementptr inbounds %struct.lzmastate, ptr %233, i32 0, i32 2
  %235 = load i32, ptr %234, align 4
  %236 = shl i32 %235, 8
  store i32 %236, ptr %234, align 4
  %237 = load ptr, ptr %6, align 8
  %238 = getelementptr inbounds %struct.lzmastate, ptr %237, i32 0, i32 1
  %239 = load i32, ptr %238, align 8
  %240 = shl i32 %239, 8
  store i32 %240, ptr %238, align 8
  %241 = load ptr, ptr %6, align 8
  %242 = getelementptr inbounds %struct.lzmastate, ptr %241, i32 0, i32 0
  %243 = load ptr, ptr %242, align 8
  %244 = getelementptr inbounds i8, ptr %243, i32 1
  store ptr %244, ptr %242, align 8
  br label %245

245:                                              ; preds = %232, %226
  %246 = load i32, ptr %11, align 4
  store i32 %246, ptr %5, align 4
  br label %247

247:                                              ; preds = %245, %162
  %248 = load i32, ptr %5, align 4
  ret i32 %248
}