; Function Attrs: nounwind uwtable
define noundef i32 @lzma_upack_esi_00(ptr nocapture noundef %0, ptr noundef %1, ptr noundef %2, i32 noundef %3) local_unnamed_addr #0 {
  %5 = getelementptr inbounds i8, ptr %0, i64 8
  %6 = load i32, ptr %5, align 8
  %7 = lshr i32 %6, 11
  %8 = zext i32 %3 to i64
  %9 = icmp ugt i32 %3, 3
  br i1 %9, label %10, label %.critedge

10:                                               ; preds = %4
  %11 = ptrtoint ptr %2 to i64
  %.not = icmp ult ptr %1, %2
  br i1 %.not, label %.critedge, label %12

12:                                               ; preds = %10
  %13 = ptrtoint ptr %1 to i64
  %14 = add i64 %13, 4
  %15 = add i64 %8, %11
  %.not102 = icmp ule i64 %14, %15
  %16 = icmp ugt i64 %14, %11
  %or.cond = and i1 %16, %.not102
  %17 = icmp ugt i64 %15, %13
  %or.cond107 = and i1 %17, %or.cond
  br i1 %or.cond107, label %18, label %.critedge

18:                                               ; preds = %12
  %19 = load ptr, ptr %0, align 8
  %.not103 = icmp ult ptr %19, %2
  br i1 %.not103, label %26, label %20

20:                                               ; preds = %18
  %21 = ptrtoint ptr %19 to i64
  %22 = add i64 %21, 4
  %.not104 = icmp ule i64 %22, %15
  %23 = icmp ugt i64 %22, %11
  %or.cond108 = and i1 %.not104, %23
  %24 = icmp ugt i64 %15, %21
  %or.cond109 = and i1 %24, %or.cond108
  br i1 %or.cond109, label %29, label %26

.critedge:                                        ; preds = %12, %10, %4
  %25 = getelementptr inbounds i8, ptr %2, i64 %8
  tail call void (ptr, ...) @cli_dbgmsg(ptr noundef nonnull @.str.2, ptr noundef %2, i32 noundef %3, ptr noundef %1, ptr noundef %25) #8
  br label %58

26:                                               ; preds = %18, %20
  %27 = load ptr, ptr %0, align 8
  %28 = getelementptr inbounds i8, ptr %2, i64 %8
  tail call void (ptr, ...) @cli_dbgmsg(ptr noundef nonnull @.str.3, ptr noundef %2, i32 noundef %3, ptr noundef %27, ptr noundef nonnull %28) #8
  br label %58

29:                                               ; preds = %20
  %30 = load i32, ptr %1, align 1
  %31 = mul i32 %30, %7
  %32 = load i32, ptr %19, align 1
  %33 = tail call i32 @llvm.bswap.i32(i32 %32)
  %34 = getelementptr inbounds i8, ptr %0, i64 12
  %35 = load i32, ptr %34, align 4
  %36 = sub i32 %33, %35
  %37 = icmp ult i32 %36, %31
  br i1 %37, label %38, label %43

38:                                               ; preds = %29
  store i32 %31, ptr %5, align 8
  %39 = sub i32 2048, %30
  %40 = lshr i32 %39, 5
  %41 = load i32, ptr %1, align 1
  %42 = add i32 %41, %40
  br label %49

43:                                               ; preds = %29
  %44 = add i32 %35, %31
  store i32 %44, ptr %34, align 4
  %45 = sub i32 %6, %31
  store i32 %45, ptr %5, align 8
  %46 = lshr i32 %30, 5
  %47 = load i32, ptr %1, align 1
  %48 = sub i32 %47, %46
  br label %49

49:                                               ; preds = %43, %38
  %storemerge = phi i32 [ %48, %43 ], [ %42, %38 ]
  %.089 = phi i32 [ 1, %43 ], [ 0, %38 ]
  store i32 %storemerge, ptr %1, align 1
  %50 = load i32, ptr %5, align 8
  %51 = icmp ult i32 %50, 16777216
  br i1 %51, label %52, label %58

52:                                               ; preds = %49
  %53 = load i32, ptr %34, align 4
  %54 = shl i32 %53, 8
  store i32 %54, ptr %34, align 4
  %55 = shl nuw i32 %50, 8
  store i32 %55, ptr %5, align 8
  %56 = load ptr, ptr %0, align 8
  %57 = getelementptr inbounds i8, ptr %56, i64 1
  store ptr %57, ptr %0, align 8
  br label %58

58:                                               ; preds = %49, %52, %.critedge, %26
  %.0 = phi i32 [ -1, %26 ], [ -1, %.critedge ], [ %.089, %52 ], [ %.089, %49 ]
  ret i32 %.0
}